; Function Attrs: nounwind uwtable
define ptr @l_Lean_Linter_getLinterOptions___at_Lean_Linter_MissingDocs_missingDocs___elambda__1___spec__1(ptr readnone captures(none) %0, ptr noundef %1, ptr noundef %2) local_unnamed_addr #0 {
  %4 = tail call ptr @lean_st_ref_get(ptr noundef %1, ptr noundef %2) #5
  %5 = getelementptr inbounds nuw i8, ptr %4, i64 8
  %6 = load ptr, ptr %5, align 8, !tbaa !4
  %7 = ptrtoint ptr %6 to i64
  %8 = and i64 %7, 1
  %.not = icmp eq i64 %8, 0
  br i1 %.not, label %9, label %lean_inc.exit26

9:                                                ; preds = %3
  %.val.i = load i32, ptr %6, align 4, !tbaa !8
  %10 = icmp sgt i32 %.val.i, 0
  br i1 %10, label %11, label %13, !prof !11

11:                                               ; preds = %9
  %12 = add nuw i32 %.val.i, 1
  store i32 %12, ptr %6, align 4, !tbaa !8
  br label %lean_inc.exit26

13:                                               ; preds = %9
  %.not.i33 = icmp eq i32 %.val.i, 0
  br i1 %.not.i33, label %lean_inc.exit26, label %14

14:                                               ; preds = %13
  tail call void @lean_inc_ref_cold(ptr noundef nonnull %6) #5
  br label %lean_inc.exit26

lean_inc.exit26:                                  ; preds = %14, %13, %11, %3
  %15 = getelementptr inbounds nuw i8, ptr %4, i64 16
  %16 = load ptr, ptr %15, align 8, !tbaa !4
  %17 = ptrtoint ptr %16 to i64
  %18 = and i64 %17, 1
  %.not43 = icmp eq i64 %18, 0
  br i1 %.not43, label %19, label %lean_inc.exit25

19:                                               ; preds = %lean_inc.exit26
  %.val.i34 = load i32, ptr %16, align 4, !tbaa !8
  %20 = icmp sgt i32 %.val.i34, 0
  br i1 %20, label %21, label %23, !prof !11

21:                                               ; preds = %19
  %22 = add nuw i32 %.val.i34, 1
  store i32 %22, ptr %16, align 4, !tbaa !8
  br label %lean_inc.exit25

23:                                               ; preds = %19
  %.not.i35 = icmp eq i32 %.val.i34, 0
  br i1 %.not.i35, label %lean_inc.exit25, label %24

24:                                               ; preds = %23
  tail call void @lean_inc_ref_cold(ptr noundef nonnull %16) #5
  br label %lean_inc.exit25

lean_inc.exit25:                                  ; preds = %24, %23, %21, %lean_inc.exit26
  %25 = ptrtoint ptr %4 to i64
  %26 = and i64 %25, 1
  %.not44 = icmp eq i64 %26, 0
  br i1 %.not44, label %27, label %lean_dec.exit23

27:                                               ; preds = %lean_inc.exit25
  %28 = load i32, ptr %4, align 4, !tbaa !8
  %29 = icmp sgt i32 %28, 1
  br i1 %29, label %30, label %32, !prof !11

30:                                               ; preds = %27
  %31 = add nsw i32 %28, -1
  store i32 %31, ptr %4, align 4, !tbaa !8
  br label %lean_dec.exit23

32:                                               ; preds = %27
  %.not.i = icmp eq i32 %28, 0
  br i1 %.not.i, label %lean_dec.exit23, label %33

33:                                               ; preds = %32
  tail call void @lean_dec_ref_cold(ptr noundef nonnull %4) #5
  br label %lean_dec.exit23

lean_dec.exit23:                                  ; preds = %33, %32, %30, %lean_inc.exit25
  %34 = getelementptr inbounds nuw i8, ptr %6, i64 24
  %35 = load ptr, ptr %34, align 8, !tbaa !4
  %36 = ptrtoint ptr %35 to i64
  %37 = and i64 %36, 1
  %.not45 = icmp eq i64 %37, 0
  br i1 %.not45, label %38, label %lean_inc.exit24

38:                                               ; preds = %lean_dec.exit23
  %.val.i37 = load i32, ptr %35, align 4, !tbaa !8
  %39 = icmp sgt i32 %.val.i37, 0
  br i1 %39, label %40, label %42, !prof !11

40:                                               ; preds = %38
  %41 = add nuw i32 %.val.i37, 1
  store i32 %41, ptr %35, align 4, !tbaa !8
  br label %lean_inc.exit24

42:                                               ; preds = %38
  %.not.i38 = icmp eq i32 %.val.i37, 0
  br i1 %.not.i38, label %lean_inc.exit24, label %43

43:                                               ; preds = %42
  tail call void @lean_inc_ref_cold(ptr noundef nonnull %35) #5
  br label %lean_inc.exit24

lean_inc.exit24:                                  ; preds = %43, %42, %40, %lean_dec.exit23
  br i1 %.not, label %44, label %lean_dec.exit22

44:                                               ; preds = %lean_inc.exit24
  %45 = load i32, ptr %6, align 4, !tbaa !8
  %46 = icmp sgt i32 %45, 1
  br i1 %46, label %47, label %49, !prof !11

47:                                               ; preds = %44
  %48 = add nsw i32 %45, -1
  store i32 %48, ptr %6, align 4, !tbaa !8
  br label %lean_dec.exit22

49:                                               ; preds = %44
  %.not.i27 = icmp eq i32 %45, 0
  br i1 %.not.i27, label %lean_dec.exit22, label %50

50:                                               ; preds = %49
  tail call void @lean_dec_ref_cold(ptr noundef nonnull %6) #5
  br label %lean_dec.exit22

lean_dec.exit22:                                  ; preds = %50, %49, %47, %lean_inc.exit24
  %51 = load ptr, ptr @l_Lean_Elab_Command_instInhabitedScope, align 8, !tbaa !4
  %52 = tail call ptr @l_List_head_x21___rarg(ptr noundef %51, ptr noundef %35) #5
  br i1 %.not45, label %53, label %lean_dec.exit21

53:                                               ; preds = %lean_dec.exit22
  %54 = load i32, ptr %35, align 4, !tbaa !8
  %55 = icmp sgt i32 %54, 1
  br i1 %55, label %56, label %58, !prof !11

56:                                               ; preds = %53
  %57 = add nsw i32 %54, -1
  store i32 %57, ptr %35, align 4, !tbaa !8
  br label %lean_dec.exit21

58:                                               ; preds = %53
  %.not.i29 = icmp eq i32 %54, 0
  br i1 %.not.i29, label %lean_dec.exit21, label %59

59:                                               ; preds = %58
  tail call void @lean_dec_ref_cold(ptr noundef nonnull %35) #5
  br label %lean_dec.exit21

lean_dec.exit21:                                  ; preds = %59, %58, %56, %lean_dec.exit22
  %60 = getelementptr inbounds nuw i8, ptr %52, i64 16
  %61 = load ptr, ptr %60, align 8, !tbaa !4
  %62 = ptrtoint ptr %61 to i64
  %63 = and i64 %62, 1
  %.not46 = icmp eq i64 %63, 0
  br i1 %.not46, label %64, label %lean_inc.exit

64:                                               ; preds = %lean_dec.exit21
  %.val.i40 = load i32, ptr %61, align 4, !tbaa !8
  %65 = icmp sgt i32 %.val.i40, 0
  br i1 %65, label %66, label %68, !prof !11

66:                                               ; preds = %64
  %67 = add nuw i32 %.val.i40, 1
  store i32 %67, ptr %61, align 4, !tbaa !8
  br label %lean_inc.exit

68:                                               ; preds = %64
  %.not.i41 = icmp eq i32 %.val.i40, 0
  br i1 %.not.i41, label %lean_inc.exit, label %69

69:                                               ; preds = %68
  tail call void @lean_inc_ref_cold(ptr noundef nonnull %61) #5
  br label %lean_inc.exit

lean_inc.exit:                                    ; preds = %69, %68, %66, %lean_dec.exit21
  %70 = ptrtoint ptr %52 to i64
  %71 = and i64 %70, 1
  %.not47 = icmp eq i64 %71, 0
  br i1 %.not47, label %72, label %lean_dec.exit

72:                                               ; preds = %lean_inc.exit
  %73 = load i32, ptr %52, align 4, !tbaa !8
  %74 = icmp sgt i32 %73, 1
  br i1 %74, label %75, label %77, !prof !11

75:                                               ; preds = %72
  %76 = add nsw i32 %73, -1
  store i32 %76, ptr %52, align 4, !tbaa !8
  br label %lean_dec.exit

77:                                               ; preds = %72
  %.not.i31 = icmp eq i32 %73, 0
  br i1 %.not.i31, label %lean_dec.exit, label %78

78:                                               ; preds = %77
  tail call void @lean_dec_ref_cold(ptr noundef nonnull %52) #5
  br label %lean_dec.exit

lean_dec.exit:                                    ; preds = %78, %77, %75, %lean_inc.exit
  %79 = tail call ptr @l_Lean_Options_toLinterOptions___at_Lean_Linter_MissingDocs_missingDocs___elambda__1___spec__2(ptr noundef %61, ptr poison, ptr noundef %1, ptr noundef %16)
  ret ptr %79
}